#include <math.h>
#include <stdio.h>
#include <stdlib.h>
#include <string.h>

main()
{
     int a[10000]={0};
      int i=0,n,m,s,k,p=2;
      scanf("%d",&n);
      if(n<=4)
      printf("empty");
      else
      {
      for(m=2;m<=n;m++)
      {
          for(p=2;p<m;p++)
             {
               if(m%p==0)
               break;           
             }
          if(p==m)
          {   a[i]=m;
               i++;      
          }            
      }
      
     k=i-1;
     i=0;
      for(s=0;s<=k;s++)
      {
          if(a[i+1]- a[i]==2)
          {
             printf("%d %d\n",a[i],a[i+1]);
             i++;   
           }
           else
              i++;        
      }
      }
      getchar();
      getchar();
}
