; ModuleID = '60/282.c'
source_filename = "60/282.c"
target datalayout = "e-m:e-p270:32:32-p271:32:32-p272:64:64-i64:64-f80:128-n8:16:32:64-S128"
target triple = "x86_64-pc-linux-gnu"

@.str = private unnamed_addr constant [3 x i8] c"%d\00", align 1
@.str.1 = private unnamed_addr constant [6 x i8] c"empty\00", align 1
@.str.2 = private unnamed_addr constant [7 x i8] c"%d %d\0A\00", align 1

; Function Attrs: noinline nounwind uwtable
define dso_local i32 @main() #0 {
  %1 = alloca i32, align 4
  %2 = alloca [10000 x i32], align 16
  %3 = alloca i32, align 4
  %4 = alloca i32, align 4
  %5 = alloca i32, align 4
  %6 = alloca i32, align 4
  %7 = alloca i32, align 4
  %8 = alloca i32, align 4
  store i32 0, i32* %1, align 4
  %9 = bitcast [10000 x i32]* %2 to i8*
  call void @llvm.memset.p0i8.i64(i8* align 16 %9, i8 0, i64 40000, i1 false)
  store i32 0, i32* %3, align 4
  store i32 2, i32* %8, align 4
  %10 = call i32 (i8*, ...) @__isoc99_scanf(i8* getelementptr inbounds ([3 x i8], [3 x i8]* @.str, i64 0, i64 0), i32* %4)
  %11 = load i32, i32* %4, align 4
  %12 = icmp sle i32 %11, 4
  br i1 %12, label %13, label %15

13:                                               ; preds = %0
  %14 = call i32 (i8*, ...) @printf(i8* getelementptr inbounds ([6 x i8], [6 x i8]* @.str.1, i64 0, i64 0))
  br label %90

15:                                               ; preds = %0
  store i32 2, i32* %5, align 4
  br label %16

16:                                               ; preds = %47, %15
  %17 = load i32, i32* %5, align 4
  %18 = load i32, i32* %4, align 4
  %19 = icmp sle i32 %17, %18
  br i1 %19, label %20, label %50

20:                                               ; preds = %16
  store i32 2, i32* %8, align 4
  br label %21

21:                                               ; preds = %32, %20
  %22 = load i32, i32* %8, align 4
  %23 = load i32, i32* %5, align 4
  %24 = icmp slt i32 %22, %23
  br i1 %24, label %25, label %35

25:                                               ; preds = %21
  %26 = load i32, i32* %5, align 4
  %27 = load i32, i32* %8, align 4
  %28 = srem i32 %26, %27
  %29 = icmp eq i32 %28, 0
  br i1 %29, label %30, label %31

30:                                               ; preds = %25
  br label %35

31:                                               ; preds = %25
  br label %32

32:                                               ; preds = %31
  %33 = load i32, i32* %8, align 4
  %34 = add nsw i32 %33, 1
  store i32 %34, i32* %8, align 4
  br label %21

35:                                               ; preds = %30, %21
  %36 = load i32, i32* %8, align 4
  %37 = load i32, i32* %5, align 4
  %38 = icmp eq i32 %36, %37
  br i1 %38, label %39, label %46

39:                                               ; preds = %35
  %40 = load i32, i32* %5, align 4
  %41 = load i32, i32* %3, align 4
  %42 = sext i32 %41 to i64
  %43 = getelementptr inbounds [10000 x i32], [10000 x i32]* %2, i64 0, i64 %42
  store i32 %40, i32* %43, align 4
  %44 = load i32, i32* %3, align 4
  %45 = add nsw i32 %44, 1
  store i32 %45, i32* %3, align 4
  br label %46

46:                                               ; preds = %39, %35
  br label %47

47:                                               ; preds = %46
  %48 = load i32, i32* %5, align 4
  %49 = add nsw i32 %48, 1
  store i32 %49, i32* %5, align 4
  br label %16

50:                                               ; preds = %16
  %51 = load i32, i32* %3, align 4
  %52 = sub nsw i32 %51, 1
  store i32 %52, i32* %7, align 4
  store i32 0, i32* %3, align 4
  store i32 0, i32* %6, align 4
  br label %53

53:                                               ; preds = %86, %50
  %54 = load i32, i32* %6, align 4
  %55 = load i32, i32* %7, align 4
  %56 = icmp sle i32 %54, %55
  br i1 %56, label %57, label %89

57:                                               ; preds = %53
  %58 = load i32, i32* %3, align 4
  %59 = add nsw i32 %58, 1
  %60 = sext i32 %59 to i64
  %61 = getelementptr inbounds [10000 x i32], [10000 x i32]* %2, i64 0, i64 %60
  %62 = load i32, i32* %61, align 4
  %63 = load i32, i32* %3, align 4
  %64 = sext i32 %63 to i64
  %65 = getelementptr inbounds [10000 x i32], [10000 x i32]* %2, i64 0, i64 %64
  %66 = load i32, i32* %65, align 4
  %67 = sub nsw i32 %62, %66
  %68 = icmp eq i32 %67, 2
  br i1 %68, label %69, label %82

69:                                               ; preds = %57
  %70 = load i32, i32* %3, align 4
  %71 = sext i32 %70 to i64
  %72 = getelementptr inbounds [10000 x i32], [10000 x i32]* %2, i64 0, i64 %71
  %73 = load i32, i32* %72, align 4
  %74 = load i32, i32* %3, align 4
  %75 = add nsw i32 %74, 1
  %76 = sext i32 %75 to i64
  %77 = getelementptr inbounds [10000 x i32], [10000 x i32]* %2, i64 0, i64 %76
  %78 = load i32, i32* %77, align 4
  %79 = call i32 (i8*, ...) @printf(i8* getelementptr inbounds ([7 x i8], [7 x i8]* @.str.2, i64 0, i64 0), i32 %73, i32 %78)
  %80 = load i32, i32* %3, align 4
  %81 = add nsw i32 %80, 1
  store i32 %81, i32* %3, align 4
  br label %85

82:                                               ; preds = %57
  %83 = load i32, i32* %3, align 4
  %84 = add nsw i32 %83, 1
  store i32 %84, i32* %3, align 4
  br label %85

85:                                               ; preds = %82, %69
  br label %86

86:                                               ; preds = %85
  %87 = load i32, i32* %6, align 4
  %88 = add nsw i32 %87, 1
  store i32 %88, i32* %6, align 4
  br label %53

89:                                               ; preds = %53
  br label %90

90:                                               ; preds = %89, %13
  %91 = call i32 @getchar()
  %92 = call i32 @getchar()
  %93 = load i32, i32* %1, align 4
  ret i32 %93
}

; Function Attrs: argmemonly nounwind willreturn
declare void @llvm.memset.p0i8.i64(i8* nocapture writeonly, i8, i64, i1 immarg) #1

declare dso_local i32 @__isoc99_scanf(i8*, ...) #2

declare dso_local i32 @printf(i8*, ...) #2

declare dso_local i32 @getchar() #2


!llvm.module.flags = !{!0}
!llvm.ident = !{!1}

!0 = !{i32 1, !"wchar_size", i32 4}
!1 = !{!"clang version 10.0.0-4ubuntu1 "}
