; ModuleID = 'source-C-CXX/59/282.c'
source_filename = "source-C-CXX/59/282.c"
target datalayout = "e-m:e-p270:32:32-p271:32:32-p272:64:64-i64:64-f80:128-n8:16:32:64-S128"
target triple = "x86_64-pc-linux-gnu"

%struct._IO_FILE = type { i32, i8*, i8*, i8*, i8*, i8*, i8*, i8*, i8*, i8*, i8*, i8*, %struct._IO_marker*, %struct._IO_FILE*, i32, i32, i64, i16, i8, [1 x i8], i8*, i64, %struct._IO_codecvt*, %struct._IO_wide_data*, %struct._IO_FILE*, i8*, i64, i32, [20 x i8] }
%struct._IO_marker = type opaque
%struct._IO_codecvt = type opaque
%struct._IO_wide_data = type opaque

@.str = private unnamed_addr constant [3 x i8] c"%d\00", align 1
@.str.1 = private unnamed_addr constant [6 x i8] c"empty\00", align 1
@.str.2 = private unnamed_addr constant [7 x i8] c"%d %d\0A\00", align 1
@stdin = external local_unnamed_addr global %struct._IO_FILE*, align 8

; Function Attrs: nofree nounwind sspstrong uwtable
define dso_local i32 @main() local_unnamed_addr #0 {
  %1 = alloca [10000 x i32], align 16
  %2 = alloca i32, align 4
  %3 = bitcast [10000 x i32]* %1 to i8*
  call void @llvm.lifetime.start.p0i8(i64 40000, i8* nonnull %3) #4
  call void @llvm.memset.p0i8.i64(i8* noundef nonnull align 16 dereferenceable(40000) %3, i8 0, i64 40000, i1 false)
  %4 = bitcast i32* %2 to i8*
  call void @llvm.lifetime.start.p0i8(i64 4, i8* nonnull %4) #4
  %5 = call i32 (i8*, ...) @__isoc99_scanf(i8* getelementptr inbounds ([3 x i8], [3 x i8]* @.str, i64 0, i64 0), i32* nonnull %2)
  %6 = load i32, i32* %2, align 4, !tbaa !5
  %7 = icmp slt i32 %6, 5
  br i1 %7, label %8, label %10

8:                                                ; preds = %0
  %9 = call i32 (i8*, ...) @printf(i8* nonnull dereferenceable(1) getelementptr inbounds ([6 x i8], [6 x i8]* @.str.1, i64 0, i64 0))
  br label %50

10:                                               ; preds = %0, %34
  %11 = phi i32 [ %35, %34 ], [ 0, %0 ]
  %12 = phi i32 [ %36, %34 ], [ 2, %0 ]
  %13 = icmp ugt i32 %12, 2
  br i1 %13, label %20, label %27

14:                                               ; preds = %34
  %15 = icmp sgt i32 %35, 0
  br i1 %15, label %16, label %50

16:                                               ; preds = %14
  %17 = zext i32 %35 to i64
  %18 = getelementptr inbounds [10000 x i32], [10000 x i32]* %1, i64 0, i64 0
  %19 = load i32, i32* %18, align 16, !tbaa !5
  br label %38

20:                                               ; preds = %10, %24
  %21 = phi i32 [ %25, %24 ], [ 2, %10 ]
  %22 = urem i32 %12, %21
  %23 = icmp eq i32 %22, 0
  br i1 %23, label %27, label %24

24:                                               ; preds = %20
  %25 = add nuw nsw i32 %21, 1
  %26 = icmp eq i32 %25, %12
  br i1 %26, label %30, label %20, !llvm.loop !9

27:                                               ; preds = %20, %10
  %28 = phi i32 [ 2, %10 ], [ %21, %20 ]
  %29 = icmp eq i32 %28, %12
  br i1 %29, label %30, label %34

30:                                               ; preds = %24, %27
  %31 = sext i32 %11 to i64
  %32 = getelementptr inbounds [10000 x i32], [10000 x i32]* %1, i64 0, i64 %31
  store i32 %12, i32* %32, align 4, !tbaa !5
  %33 = add nsw i32 %11, 1
  br label %34

34:                                               ; preds = %27, %30
  %35 = phi i32 [ %33, %30 ], [ %11, %27 ]
  %36 = add nuw i32 %12, 1
  %37 = icmp eq i32 %12, %6
  br i1 %37, label %14, label %10, !llvm.loop !11

38:                                               ; preds = %16, %48
  %39 = phi i32 [ %19, %16 ], [ %43, %48 ]
  %40 = phi i64 [ 0, %16 ], [ %41, %48 ]
  %41 = add nuw nsw i64 %40, 1
  %42 = getelementptr inbounds [10000 x i32], [10000 x i32]* %1, i64 0, i64 %41
  %43 = load i32, i32* %42, align 4, !tbaa !5
  %44 = sub nsw i32 %43, %39
  %45 = icmp eq i32 %44, 2
  br i1 %45, label %46, label %48

46:                                               ; preds = %38
  %47 = call i32 (i8*, ...) @printf(i8* nonnull dereferenceable(1) getelementptr inbounds ([7 x i8], [7 x i8]* @.str.2, i64 0, i64 0), i32 %39, i32 %43)
  br label %48

48:                                               ; preds = %38, %46
  %49 = icmp eq i64 %41, %17
  br i1 %49, label %50, label %38, !llvm.loop !12

50:                                               ; preds = %48, %14, %8
  %51 = load %struct._IO_FILE*, %struct._IO_FILE** @stdin, align 8, !tbaa !13
  %52 = call i32 @getc(%struct._IO_FILE* %51) #4
  %53 = load %struct._IO_FILE*, %struct._IO_FILE** @stdin, align 8, !tbaa !13
  %54 = call i32 @getc(%struct._IO_FILE* %53) #4
  call void @llvm.lifetime.end.p0i8(i64 4, i8* nonnull %4) #4
  call void @llvm.lifetime.end.p0i8(i64 40000, i8* nonnull %3) #4
  ret i32 0
}

; Function Attrs: argmemonly mustprogress nofree nosync nounwind willreturn
declare void @llvm.lifetime.start.p0i8(i64 immarg, i8* nocapture) #1

; Function Attrs: argmemonly mustprogress nofree nounwind willreturn writeonly
declare void @llvm.memset.p0i8.i64(i8* nocapture writeonly, i8, i64, i1 immarg) #2

; Function Attrs: nofree nounwind
declare noundef i32 @__isoc99_scanf(i8* nocapture noundef readonly, ...) local_unnamed_addr #3

; Function Attrs: nofree nounwind
declare noundef i32 @printf(i8* nocapture noundef readonly, ...) local_unnamed_addr #3

; Function Attrs: argmemonly mustprogress nofree nosync nounwind willreturn
declare void @llvm.lifetime.end.p0i8(i64 immarg, i8* nocapture) #1

; Function Attrs: nofree nounwind
declare noundef i32 @getc(%struct._IO_FILE* nocapture noundef) local_unnamed_addr #3


!llvm.module.flags = !{!0, !1, !2, !3}
!llvm.ident = !{!4}

!0 = !{i32 1, !"wchar_size", i32 4}
!1 = !{i32 7, !"PIC Level", i32 2}
!2 = !{i32 7, !"PIE Level", i32 2}
!3 = !{i32 7, !"uwtable", i32 1}
!4 = !{!"clang version 13.0.0"}
!5 = !{!6, !6, i64 0}
!6 = !{!"int", !7, i64 0}
!7 = !{!"omnipotent char", !8, i64 0}
!8 = !{!"Simple C/C++ TBAA"}
!9 = distinct !{!9, !10}
!10 = !{!"llvm.loop.mustprogress"}
!11 = distinct !{!11, !10}
!12 = distinct !{!12, !10}
!13 = !{!14, !14, i64 0}
!14 = !{!"any pointer", !7, i64 0}
